; Function Attrs: mustprogress uwtable
define noundef zeroext i1 @_ZN32pxrInternal_v0_24__pxrReserved__19GfFindClosestPointsERKNS_9GfLineSegES2_PNS_7GfVec3dES4_PdS5_(ptr noundef nonnull align 8 dereferenceable(56) %0, ptr noundef nonnull align 8 dereferenceable(56) %1, ptr noundef writeonly %2, ptr noundef writeonly %3, ptr noundef writeonly %4, ptr noundef writeonly %5) local_unnamed_addr #0 {
  %7 = alloca %"class.pxrInternal_v0_24__pxrReserved__::GfVec3d", align 8
  %8 = alloca %"class.pxrInternal_v0_24__pxrReserved__::GfVec3d", align 8
  %9 = alloca double, align 8
  %10 = alloca double, align 8
  %11 = call noundef zeroext i1 @_ZN32pxrInternal_v0_24__pxrReserved__19GfFindClosestPointsERKNS_6GfLineES2_PNS_7GfVec3dES4_PdS5_(ptr noundef nonnull align 8 dereferenceable(48) %0, ptr noundef nonnull align 8 dereferenceable(48) %1, ptr noundef nonnull %7, ptr noundef nonnull %8, ptr noundef nonnull %9, ptr noundef nonnull %10)
  br i1 %11, label %12, label %49

12:                                               ; preds = %6
  %13 = load double, ptr %9, align 8
  %14 = getelementptr inbounds nuw i8, ptr %0, i64 48
  %15 = load double, ptr %14, align 8
  %16 = fdiv double %13, %15
  %17 = fcmp olt double %16, 0.000000e+00
  %18 = fcmp ogt double %16, 1.000000e+00
  %..i = select i1 %18, double 1.000000e+00, double %16
  %.0.i = select i1 %17, double 0.000000e+00, double %..i
  %19 = load double, ptr %10, align 8
  %20 = getelementptr inbounds nuw i8, ptr %1, i64 48
  %21 = load double, ptr %20, align 8
  %22 = fdiv double %19, %21
  %23 = fcmp olt double %22, 0.000000e+00
  %24 = fcmp ogt double %22, 1.000000e+00
  %..i22 = select i1 %24, double 1.000000e+00, double %22
  %.0.i23 = select i1 %23, double 0.000000e+00, double %..i22
  %.not = icmp eq ptr %2, null
  br i1 %.not, label %34, label %25

25:                                               ; preds = %12
  %26 = fmul double %15, %.0.i
  %27 = getelementptr inbounds nuw i8, ptr %0, i64 24
  %.sroa.0.0.copyload.i.i.i = load double, ptr %27, align 8, !noalias !27
  %.sroa.4.0..sroa_idx.i.i.i = getelementptr inbounds i8, ptr %0, i64 32
  %.sroa.4.0.copyload.i.i.i = load double, ptr %.sroa.4.0..sroa_idx.i.i.i, align 8, !noalias !27
  %.sroa.6.0..sroa_idx.i.i.i = getelementptr inbounds i8, ptr %0, i64 40
  %.sroa.6.0.copyload.i.i.i = load double, ptr %.sroa.6.0..sroa_idx.i.i.i, align 8, !noalias !27
  %28 = fmul double %26, %.sroa.0.0.copyload.i.i.i
  %29 = fmul double %26, %.sroa.4.0.copyload.i.i.i
  %30 = fmul double %26, %.sroa.6.0.copyload.i.i.i
  %.sroa.0.0.copyload.i2.i.i = load double, ptr %0, align 8, !noalias !34
  %.sroa.4.0..sroa_idx.i3.i.i = getelementptr inbounds i8, ptr %0, i64 8
  %.sroa.4.0.copyload.i4.i.i = load double, ptr %.sroa.4.0..sroa_idx.i3.i.i, align 8, !noalias !34
  %.sroa.6.0..sroa_idx.i5.i.i = getelementptr inbounds i8, ptr %0, i64 16
  %.sroa.6.0.copyload.i6.i.i = load double, ptr %.sroa.6.0..sroa_idx.i5.i.i, align 8, !noalias !34
  %31 = fadd double %28, %.sroa.0.0.copyload.i2.i.i
  %32 = fadd double %29, %.sroa.4.0.copyload.i4.i.i
  %33 = fadd double %30, %.sroa.6.0.copyload.i6.i.i
  store double %31, ptr %2, align 8
  %.sroa.237.0..sroa_idx = getelementptr inbounds i8, ptr %2, i64 8
  store double %32, ptr %.sroa.237.0..sroa_idx, align 8
  %.sroa.338.0..sroa_idx = getelementptr inbounds i8, ptr %2, i64 16
  store double %33, ptr %.sroa.338.0..sroa_idx, align 8
  br label %34

34:                                               ; preds = %25, %12
  %.not19 = icmp eq ptr %3, null
  br i1 %.not19, label %45, label %35

35:                                               ; preds = %34
  %36 = load double, ptr %20, align 8, !noalias !37
  %37 = fmul double %.0.i23, %36
  %38 = getelementptr inbounds nuw i8, ptr %1, i64 24
  %.sroa.0.0.copyload.i.i.i24 = load double, ptr %38, align 8, !noalias !40
  %.sroa.4.0..sroa_idx.i.i.i25 = getelementptr inbounds i8, ptr %1, i64 32
  %.sroa.4.0.copyload.i.i.i26 = load double, ptr %.sroa.4.0..sroa_idx.i.i.i25, align 8, !noalias !40
  %.sroa.6.0..sroa_idx.i.i.i27 = getelementptr inbounds i8, ptr %1, i64 40
  %.sroa.6.0.copyload.i.i.i28 = load double, ptr %.sroa.6.0..sroa_idx.i.i.i27, align 8, !noalias !40
  %39 = fmul double %37, %.sroa.0.0.copyload.i.i.i24
  %40 = fmul double %37, %.sroa.4.0.copyload.i.i.i26
  %41 = fmul double %37, %.sroa.6.0.copyload.i.i.i28
  %.sroa.0.0.copyload.i2.i.i29 = load double, ptr %1, align 8, !noalias !45
  %.sroa.4.0..sroa_idx.i3.i.i30 = getelementptr inbounds i8, ptr %1, i64 8
  %.sroa.4.0.copyload.i4.i.i31 = load double, ptr %.sroa.4.0..sroa_idx.i3.i.i30, align 8, !noalias !45
  %.sroa.6.0..sroa_idx.i5.i.i32 = getelementptr inbounds i8, ptr %1, i64 16
  %.sroa.6.0.copyload.i6.i.i33 = load double, ptr %.sroa.6.0..sroa_idx.i5.i.i32, align 8, !noalias !45
  %42 = fadd double %39, %.sroa.0.0.copyload.i2.i.i29
  %43 = fadd double %40, %.sroa.4.0.copyload.i4.i.i31
  %44 = fadd double %41, %.sroa.6.0.copyload.i6.i.i33
  store double %42, ptr %3, align 8
  %.sroa.2.0..sroa_idx = getelementptr inbounds i8, ptr %3, i64 8
  store double %43, ptr %.sroa.2.0..sroa_idx, align 8
  %.sroa.3.0..sroa_idx = getelementptr inbounds i8, ptr %3, i64 16
  store double %44, ptr %.sroa.3.0..sroa_idx, align 8
  br label %45

45:                                               ; preds = %35, %34
  %.not20 = icmp eq ptr %4, null
  br i1 %.not20, label %47, label %46

46:                                               ; preds = %45
  store double %.0.i, ptr %4, align 8
  br label %47

47:                                               ; preds = %46, %45
  %.not21 = icmp eq ptr %5, null
  br i1 %.not21, label %49, label %48

48:                                               ; preds = %47
  store double %.0.i23, ptr %5, align 8
  br label %49

49:                                               ; preds = %47, %48, %6
  ret i1 %11
}